target datalayout = "e-m:e-p270:32:32-p271:32:32-p272:64:64-i64:64-i128:128-f80:128-n8:16:32:64-S128"
target triple = "x86_64-pc-linux-gnu"

%struct.FrameDecodeData = type { ptr, ptr, ptr, ptr, ptr }
%union.AVRefStructOpaque = type { ptr }

; Function Attrs: nounwind uwtable
define internal void @decode_data_free(ptr %0, ptr noundef %1) #0 {
  %3 = alloca %union.AVRefStructOpaque, align 8
  %4 = alloca ptr, align 8
  %5 = alloca ptr, align 8
  %6 = getelementptr inbounds nuw %union.AVRefStructOpaque, ptr %3, i32 0, i32 0
  store ptr %0, ptr %6, align 8
  store ptr %1, ptr %4, align 8, !tbaa !142
  call void @llvm.lifetime.start.p0(i64 8, ptr %5) #11
  %7 = load ptr, ptr %4, align 8, !tbaa !142
  store ptr %7, ptr %5, align 8, !tbaa !106
  %8 = load ptr, ptr %5, align 8, !tbaa !106
  %9 = getelementptr inbounds nuw %struct.FrameDecodeData, ptr %8, i32 0, i32 2
  %10 = load ptr, ptr %9, align 8, !tbaa !256
  %11 = icmp ne ptr %10, null
  br i1 %11, label %12, label %19

12:                                               ; preds = %2
  %13 = load ptr, ptr %5, align 8, !tbaa !106
  %14 = getelementptr inbounds nuw %struct.FrameDecodeData, ptr %13, i32 0, i32 2
  %15 = load ptr, ptr %14, align 8, !tbaa !256
  %16 = load ptr, ptr %5, align 8, !tbaa !106
  %17 = getelementptr inbounds nuw %struct.FrameDecodeData, ptr %16, i32 0, i32 1
  %18 = load ptr, ptr %17, align 8, !tbaa !257
  call void %15(ptr noundef %18)
  br label %19

19:                                               ; preds = %12, %2
  %20 = load ptr, ptr %5, align 8, !tbaa !106
  %21 = getelementptr inbounds nuw %struct.FrameDecodeData, ptr %20, i32 0, i32 4
  %22 = load ptr, ptr %21, align 8, !tbaa !258
  %23 = icmp ne ptr %22, null
  br i1 %23, label %24, label %31

24:                                               ; preds = %19
  %25 = load ptr, ptr %5, align 8, !tbaa !106
  %26 = getelementptr inbounds nuw %struct.FrameDecodeData, ptr %25, i32 0, i32 4
  %27 = load ptr, ptr %26, align 8, !tbaa !258
  %28 = load ptr, ptr %5, align 8, !tbaa !106
  %29 = getelementptr inbounds nuw %struct.FrameDecodeData, ptr %28, i32 0, i32 3
  %30 = load ptr, ptr %29, align 8, !tbaa !259
  call void %27(ptr noundef %30)
  br label %31

31:                                               ; preds = %24, %19
  call void @llvm.lifetime.end.p0(i64 8, ptr %5) #11
  ret void
}