; Function Attrs: nounwind uwtable
define internal void @decode_data_free(ptr readnone captures(none) %0, ptr noundef readonly captures(none) %1) #0 {
  %3 = getelementptr inbounds nuw i8, ptr %1, i64 16
  %4 = load ptr, ptr %3, align 8, !tbaa !231
  %.not = icmp eq ptr %4, null
  br i1 %.not, label %8, label %5

5:                                                ; preds = %2
  %6 = getelementptr inbounds nuw i8, ptr %1, i64 8
  %7 = load ptr, ptr %6, align 8, !tbaa !232
  tail call void %4(ptr noundef %7) #10
  br label %8

8:                                                ; preds = %5, %2
  %9 = getelementptr inbounds nuw i8, ptr %1, i64 32
  %10 = load ptr, ptr %9, align 8, !tbaa !233
  %.not8 = icmp eq ptr %10, null
  br i1 %.not8, label %14, label %11

11:                                               ; preds = %8
  %12 = getelementptr inbounds nuw i8, ptr %1, i64 24
  %13 = load ptr, ptr %12, align 8, !tbaa !234
  tail call void %10(ptr noundef %13) #10
  br label %14

14:                                               ; preds = %11, %8
  ret void
}